; Function Attrs: mustprogress nofree norecurse nosync nounwind willreturn memory(argmem: readwrite) uwtable
define void @_ZN3zmq7dgram_t16xpipe_terminatedEPNS_6pipe_tE(ptr nocapture noundef nonnull align 8 dereferenceable(1848) %this, ptr noundef readnone %pipe_) unnamed_addr #8 align 2 {
entry:
  %_pipe = getelementptr inbounds i8, ptr %this, i64 1832
  %0 = load ptr, ptr %_pipe, align 8
  %cmp = icmp eq ptr %0, %pipe_
  br i1 %cmp, label %if.then, label %if.end

if.then:                                          ; preds = %entry
  store ptr null, ptr %_pipe, align 8
  br label %if.end

if.end:                                           ; preds = %if.then, %entry
  ret void
}